target datalayout = "e-m:e-p270:32:32-p271:32:32-p272:64:64-i64:64-i128:128-f80:128-n8:16:32:64-S128"
target triple = "x86_64-unknown-linux-gnu"

%"class.google::LogMessage" = type { ptr, ptr, %"struct.google::LogMessageTime" }
%"struct.google::LogMessageTime" = type { %struct.tm, i64, i32, i64 }
%struct.tm = type { i32, i32, i32, i32, i32, i32, i32, i32, i32, i64, ptr }
%"class.proxygen::WorkerThread" = type { ptr, i8, %"class.std::thread", %"class.std::mutex", ptr, %"class.std::unique_ptr" }
%"class.std::thread" = type { %"class.std::thread::id" }
%"class.std::thread::id" = type { i64 }
%"class.std::mutex" = type { %"class.std::__mutex_base" }
%"class.std::__mutex_base" = type { %union.pthread_mutex_t }
%union.pthread_mutex_t = type { %struct.__pthread_mutex_s }
%struct.__pthread_mutex_s = type { i32, i32, i32, i32, i32, i16, i16, %struct.__pthread_internal_list }
%struct.__pthread_internal_list = type { ptr, ptr }
%"class.std::unique_ptr" = type { %"struct.std::__uniq_ptr_data" }
%"struct.std::__uniq_ptr_data" = type { %"class.std::__uniq_ptr_impl" }
%"class.std::__uniq_ptr_impl" = type { %"class.std::tuple" }
%"class.std::tuple" = type { %"struct.std::_Tuple_impl" }
%"struct.std::_Tuple_impl" = type { %"struct.std::_Head_base.1" }
%"struct.std::_Head_base.1" = type { ptr }
%"class.google::LogMessageVoidify" = type { i8 }
%"class.google::LogMessageFatal" = type { %"class.google::LogMessage" }
%struct.__sigset_t = type { [16 x i64] }
%"class.google::ErrnoLogMessage" = type { %"class.google::LogMessage" }

@_ZN8proxygen12WorkerThread14currentWorker_E = thread_local global ptr null, align 8
@.str = private unnamed_addr constant [134 x i8] c"generated/home/dtcxzyw/WorkSpace/Projects/compilers/llvm-opt-benchmark/bench/proxygen/proxygen/proxygen/lib/services/WorkerThread.cpp\00", align 1
@.str.4 = private unnamed_addr constant [61 x i8] c"Check failed: pthread_sigmask(SIG_BLOCK, &ss, nullptr) == 0 \00", align 1
@.str.5 = private unnamed_addr constant [41 x i8] c"Check failed: nullptr == currentWorker_ \00", align 1

; Function Attrs: mustprogress nounwind uwtable
define linkonce_odr noundef nonnull align 8 dereferenceable(8) ptr @_ZNSt10_Head_baseILm0EPN5folly9EventBaseELb0EE7_M_headERKS3_(ptr noundef nonnull align 8 dereferenceable(8) %__b) #1 comdat align 2 {
entry:
  %__b.addr = alloca ptr, align 8
  store ptr %__b, ptr %__b.addr, align 8
  %0 = load ptr, ptr %__b.addr, align 8
  %_M_head_impl = getelementptr inbounds %"struct.std::_Head_base.1", ptr %0, i32 0, i32 0
  ret ptr %_M_head_impl
}

; Function Attrs: mustprogress nounwind uwtable
define linkonce_odr noundef nonnull align 8 dereferenceable(8) ptr @_ZNSt11_Tuple_implILm0EJPN5folly9EventBaseESt14default_deleteIS1_EEE7_M_headERKS5_(ptr noundef nonnull align 8 dereferenceable(8) %__t) #1 comdat align 2 {
entry:
  %__t.addr = alloca ptr, align 8
  store ptr %__t, ptr %__t.addr, align 8
  %0 = load ptr, ptr %__t.addr, align 8
  %call = call noundef nonnull align 8 dereferenceable(8) ptr @_ZNSt10_Head_baseILm0EPN5folly9EventBaseELb0EE7_M_headERKS3_(ptr noundef nonnull align 8 dereferenceable(8) %0) #14
  ret ptr %call
}

; Function Attrs: mustprogress nounwind uwtable
define linkonce_odr noundef nonnull align 8 dereferenceable(8) ptr @_ZSt12__get_helperILm0EPN5folly9EventBaseEJSt14default_deleteIS1_EEERKT0_RKSt11_Tuple_implIXT_EJS5_DpT1_EE(ptr noundef nonnull align 8 dereferenceable(8) %__t) #1 comdat {
entry:
  %__t.addr = alloca ptr, align 8
  store ptr %__t, ptr %__t.addr, align 8
  %0 = load ptr, ptr %__t.addr, align 8
  %call = call noundef nonnull align 8 dereferenceable(8) ptr @_ZNSt11_Tuple_implILm0EJPN5folly9EventBaseESt14default_deleteIS1_EEE7_M_headERKS5_(ptr noundef nonnull align 8 dereferenceable(8) %0) #14
  ret ptr %call
}

; Function Attrs: mustprogress nounwind uwtable
define linkonce_odr noundef nonnull align 8 dereferenceable(8) ptr @_ZSt3getILm0EJPN5folly9EventBaseESt14default_deleteIS1_EEERKNSt13tuple_elementIXT_ESt5tupleIJDpT0_EEE4typeERKS9_(ptr noundef nonnull align 8 dereferenceable(8) %__t) #1 comdat {
entry:
  %__t.addr = alloca ptr, align 8
  store ptr %__t, ptr %__t.addr, align 8
  %0 = load ptr, ptr %__t.addr, align 8
  %call = call noundef nonnull align 8 dereferenceable(8) ptr @_ZSt12__get_helperILm0EPN5folly9EventBaseEJSt14default_deleteIS1_EEERKT0_RKSt11_Tuple_implIXT_EJS5_DpT1_EE(ptr noundef nonnull align 8 dereferenceable(8) %0) #14
  ret ptr %call
}

; Function Attrs: mustprogress nounwind uwtable
define linkonce_odr noundef ptr @_ZNKSt15__uniq_ptr_implIN5folly9EventBaseESt14default_deleteIS1_EE6_M_ptrEv(ptr noundef nonnull align 8 dereferenceable(8) %this) #1 comdat align 2 {
entry:
  %this.addr = alloca ptr, align 8
  store ptr %this, ptr %this.addr, align 8
  %this1 = load ptr, ptr %this.addr, align 8
  %_M_t = getelementptr inbounds %"class.std::__uniq_ptr_impl", ptr %this1, i32 0, i32 0
  %call = call noundef nonnull align 8 dereferenceable(8) ptr @_ZSt3getILm0EJPN5folly9EventBaseESt14default_deleteIS1_EEERKNSt13tuple_elementIXT_ESt5tupleIJDpT0_EEE4typeERKS9_(ptr noundef nonnull align 8 dereferenceable(8) %_M_t) #14
  %0 = load ptr, ptr %call, align 8
  ret ptr %0
}

; Function Attrs: mustprogress nounwind uwtable
define linkonce_odr noundef ptr @_ZNKSt10unique_ptrIN5folly9EventBaseESt14default_deleteIS1_EE3getEv(ptr noundef nonnull align 8 dereferenceable(8) %this) #1 comdat align 2 {
entry:
  %this.addr = alloca ptr, align 8
  store ptr %this, ptr %this.addr, align 8
  %this1 = load ptr, ptr %this.addr, align 8
  %_M_t = getelementptr inbounds %"class.std::unique_ptr", ptr %this1, i32 0, i32 0
  %call = call noundef ptr @_ZNKSt15__uniq_ptr_implIN5folly9EventBaseESt14default_deleteIS1_EE6_M_ptrEv(ptr noundef nonnull align 8 dereferenceable(8) %_M_t) #14
  ret ptr %call
}

; Function Attrs: mustprogress nounwind uwtable
define linkonce_odr void @_ZN6google17LogMessageVoidifyanERSo(ptr noundef nonnull align 1 dereferenceable(1) %this, ptr noundef nonnull align 8 dereferenceable(8) %0) #1 comdat align 2 {
entry:
  %this.addr = alloca ptr, align 8
  %.addr = alloca ptr, align 8
  store ptr %this, ptr %this.addr, align 8
  store ptr %0, ptr %.addr, align 8
  ret void
}

; Function Attrs: mustprogress nounwind uwtable
define linkonce_odr void @_ZN6google17LogMessageVoidifyC2Ev(ptr noundef nonnull align 1 dereferenceable(1) %this) unnamed_addr #1 comdat align 2 {
entry:
  %this.addr = alloca ptr, align 8
  store ptr %this, ptr %this.addr, align 8
  ret void
}

; Function Attrs: mustprogress uwtable
define void @_ZN8proxygen12WorkerThread5setupEv(ptr noundef nonnull align 8 dereferenceable(80) %this) unnamed_addr #0 align 2 personality ptr @__gxx_personality_v0 {
entry:
  %this.addr = alloca ptr, align 8
  %ss = alloca %struct.__sigset_t, align 8
  %ref.tmp = alloca %"class.google::LogMessageVoidify", align 1
  %ref.tmp13 = alloca %"class.google::ErrnoLogMessage", align 8
  %indirect-arg-temp = alloca { i64, i64 }, align 8
  %cleanup.cond = alloca i1, align 1
  %exn.slot = alloca ptr, align 8
  %ehselector.slot = alloca i32, align 4
  %ref.tmp25 = alloca %"class.google::LogMessageVoidify", align 1
  %ref.tmp26 = alloca %"class.google::LogMessageFatal", align 8
  %cleanup.cond27 = alloca i1, align 1
  store ptr %this, ptr %this.addr, align 8
  %this1 = load ptr, ptr %this.addr, align 8
  %call = call i32 @sigemptyset(ptr noundef %ss) #14
  %call2 = call i32 @sigaddset(ptr noundef %ss, i32 noundef 1) #14
  %call3 = call i32 @sigaddset(ptr noundef %ss, i32 noundef 2) #14
  %call4 = call i32 @sigaddset(ptr noundef %ss, i32 noundef 3) #14
  %call5 = call i32 @sigaddset(ptr noundef %ss, i32 noundef 10) #14
  %call6 = call i32 @sigaddset(ptr noundef %ss, i32 noundef 12) #14
  %call7 = call i32 @sigaddset(ptr noundef %ss, i32 noundef 13) #14
  %call8 = call i32 @sigaddset(ptr noundef %ss, i32 noundef 14) #14
  %call9 = call i32 @sigaddset(ptr noundef %ss, i32 noundef 15) #14
  %call10 = call i32 @sigaddset(ptr noundef %ss, i32 noundef 17) #14
  %call11 = call i32 @sigaddset(ptr noundef %ss, i32 noundef 29) #14
  %call12 = call i32 @pthread_sigmask(i32 noundef 0, ptr noundef %ss, ptr noundef null) #14
  %cmp = icmp eq i32 %call12, 0
  %lnot = xor i1 %cmp, true
  store i1 false, ptr %cleanup.cond, align 1
  br i1 %lnot, label %cond.false, label %cond.true

cond.true:                                        ; preds = %entry
  br label %cond.end

cond.false:                                       ; preds = %entry
  call void @_ZN6google17LogMessageVoidifyC2Ev(ptr noundef nonnull align 1 dereferenceable(1) %ref.tmp)
  store { i64, i64 } { i64 ptrtoint (ptr @_ZN6google10LogMessage9SendToLogEv to i64), i64 0 }, ptr %indirect-arg-temp, align 8
  call void @_ZN6google15ErrnoLogMessageC1EPKciilMNS_10LogMessageEFvvE(ptr noundef nonnull align 8 dereferenceable(96) %ref.tmp13, ptr noundef @.str, i32 noundef 169, i32 noundef 3, i64 noundef 0, ptr noundef byval({ i64, i64 }) align 8 %indirect-arg-temp)
  store i1 true, ptr %cleanup.cond, align 1
  %call14 = invoke noundef nonnull align 8 dereferenceable(8) ptr @_ZN6google10LogMessage6streamEv(ptr noundef nonnull align 8 dereferenceable(96) %ref.tmp13)
          to label %invoke.cont unwind label %lpad

invoke.cont:                                      ; preds = %cond.false
  %call16 = invoke noundef nonnull align 8 dereferenceable(8) ptr @_ZStlsISt11char_traitsIcEERSt13basic_ostreamIcT_ES5_PKc(ptr noundef nonnull align 8 dereferenceable(8) %call14, ptr noundef @.str.4)
          to label %invoke.cont15 unwind label %lpad

invoke.cont15:                                    ; preds = %invoke.cont
  invoke void @_ZN6google17LogMessageVoidifyanERSo(ptr noundef nonnull align 1 dereferenceable(1) %ref.tmp, ptr noundef nonnull align 8 dereferenceable(8) %call16)
          to label %invoke.cont17 unwind label %lpad

invoke.cont17:                                    ; preds = %invoke.cont15
  br label %cond.end

cond.end:                                         ; preds = %invoke.cont17, %cond.true
  %cleanup.is_active = load i1, ptr %cleanup.cond, align 1
  br i1 %cleanup.is_active, label %cleanup.action, label %cleanup.done

cleanup.action:                                   ; preds = %cond.end
  call void @_ZN6google15ErrnoLogMessageD1Ev(ptr noundef nonnull align 8 dereferenceable(96) %ref.tmp13) #14
  br label %cleanup.done

cleanup.done:                                     ; preds = %cleanup.action, %cond.end
  %0 = call align 8 ptr @llvm.threadlocal.address.p0(ptr align 8 @_ZN8proxygen12WorkerThread14currentWorker_E)
  %1 = load ptr, ptr %0, align 8
  %cmp21 = icmp eq ptr null, %1
  %lnot22 = xor i1 %cmp21, true
  store i1 false, ptr %cleanup.cond27, align 1
  br i1 %lnot22, label %cond.false24, label %cond.true23

cond.true23:                                      ; preds = %cleanup.done
  br label %cond.end34

cond.false24:                                     ; preds = %cleanup.done
  call void @_ZN6google17LogMessageVoidifyC2Ev(ptr noundef nonnull align 1 dereferenceable(1) %ref.tmp25)
  call void @_ZN6google15LogMessageFatalC1EPKci(ptr noundef nonnull align 8 dereferenceable(96) %ref.tmp26, ptr noundef @.str, i32 noundef 173)
  store i1 true, ptr %cleanup.cond27, align 1
  %call30 = invoke noundef nonnull align 8 dereferenceable(8) ptr @_ZN6google10LogMessage6streamEv(ptr noundef nonnull align 8 dereferenceable(96) %ref.tmp26)
          to label %invoke.cont29 unwind label %lpad28

invoke.cont29:                                    ; preds = %cond.false24
  %call32 = invoke noundef nonnull align 8 dereferenceable(8) ptr @_ZStlsISt11char_traitsIcEERSt13basic_ostreamIcT_ES5_PKc(ptr noundef nonnull align 8 dereferenceable(8) %call30, ptr noundef @.str.5)
          to label %invoke.cont31 unwind label %lpad28

invoke.cont31:                                    ; preds = %invoke.cont29
  invoke void @_ZN6google17LogMessageVoidifyanERSo(ptr noundef nonnull align 1 dereferenceable(1) %ref.tmp25, ptr noundef nonnull align 8 dereferenceable(8) %call32)
          to label %invoke.cont33 unwind label %lpad28

invoke.cont33:                                    ; preds = %invoke.cont31
  br label %cond.end34

cond.end34:                                       ; preds = %invoke.cont33, %cond.true23
  %cleanup.is_active35 = load i1, ptr %cleanup.cond27, align 1
  br i1 %cleanup.is_active35, label %cleanup.action36, label %cleanup.done37

cleanup.action36:                                 ; preds = %cond.end34
  call void @_ZN6google15LogMessageFatalD1Ev(ptr noundef nonnull align 8 dereferenceable(96) %ref.tmp26) #17
  unreachable

lpad:                                             ; preds = %invoke.cont15, %invoke.cont, %cond.false
  %2 = landingpad { ptr, i32 }
          cleanup
  %3 = extractvalue { ptr, i32 } %2, 0
  store ptr %3, ptr %exn.slot, align 8
  %4 = extractvalue { ptr, i32 } %2, 1
  store i32 %4, ptr %ehselector.slot, align 4
  %cleanup.is_active18 = load i1, ptr %cleanup.cond, align 1
  br i1 %cleanup.is_active18, label %cleanup.action19, label %cleanup.done20

cleanup.action19:                                 ; preds = %lpad
  call void @_ZN6google15ErrnoLogMessageD1Ev(ptr noundef nonnull align 8 dereferenceable(96) %ref.tmp13) #14
  br label %cleanup.done20

cleanup.done20:                                   ; preds = %cleanup.action19, %lpad
  br label %eh.resume

lpad28:                                           ; preds = %invoke.cont31, %invoke.cont29, %cond.false24
  %5 = landingpad { ptr, i32 }
          cleanup
  %6 = extractvalue { ptr, i32 } %5, 0
  store ptr %6, ptr %exn.slot, align 8
  %7 = extractvalue { ptr, i32 } %5, 1
  store i32 %7, ptr %ehselector.slot, align 4
  %cleanup.is_active38 = load i1, ptr %cleanup.cond27, align 1
  br i1 %cleanup.is_active38, label %cleanup.action39, label %cleanup.done40

8:                                                ; No predecessors!
  br label %cleanup.done37

cleanup.done37:                                   ; preds = %8, %cond.end34
  %9 = call align 8 ptr @llvm.threadlocal.address.p0(ptr align 8 @_ZN8proxygen12WorkerThread14currentWorker_E)
  store ptr %this1, ptr %9, align 8
  %eventBaseManager_ = getelementptr inbounds %"class.proxygen::WorkerThread", ptr %this1, i32 0, i32 4
  %10 = load ptr, ptr %eventBaseManager_, align 8
  %tobool = icmp ne ptr %10, null
  br i1 %tobool, label %if.then, label %if.end

if.then:                                          ; preds = %cleanup.done37
  %eventBaseManager_41 = getelementptr inbounds %"class.proxygen::WorkerThread", ptr %this1, i32 0, i32 4
  %11 = load ptr, ptr %eventBaseManager_41, align 8
  %eventBase_ = getelementptr inbounds %"class.proxygen::WorkerThread", ptr %this1, i32 0, i32 5
  %call42 = call noundef ptr @_ZNKSt10unique_ptrIN5folly9EventBaseESt14default_deleteIS1_EE3getEv(ptr noundef nonnull align 8 dereferenceable(8) %eventBase_) #14
  call void @_ZN5folly16EventBaseManager12setEventBaseEPNS_9EventBaseEb(ptr noundef nonnull align 8 dereferenceable(112) %11, ptr noundef %call42, i1 noundef zeroext false)
  br label %if.end

cleanup.action39:                                 ; preds = %lpad28
  call void @_ZN6google15LogMessageFatalD1Ev(ptr noundef nonnull align 8 dereferenceable(96) %ref.tmp26) #17
  unreachable

12:                                               ; No predecessors!
  br label %cleanup.done40

cleanup.done40:                                   ; preds = %12, %lpad28
  br label %eh.resume

if.end:                                           ; preds = %if.then, %cleanup.done37
  ret void

eh.resume:                                        ; preds = %cleanup.done40, %cleanup.done20
  %exn = load ptr, ptr %exn.slot, align 8
  %sel = load i32, ptr %ehselector.slot, align 4
  %lpad.val = insertvalue { ptr, i32 } poison, ptr %exn, 0
  %lpad.val43 = insertvalue { ptr, i32 } %lpad.val, i32 %sel, 1
  resume { ptr, i32 } %lpad.val43
}