; Function Attrs: mustprogress uwtable
define void @_ZN8proxygen12WorkerThread5setupEv(ptr noundef nonnull align 8 dereferenceable(80) %this) unnamed_addr #0 align 2 personality ptr @__gxx_personality_v0 {
entry:
  %ss = alloca %struct.__sigset_t, align 8
  %ref.tmp13 = alloca %"class.google::ErrnoLogMessage", align 8
  %indirect-arg-temp = alloca { i64, i64 }, align 8
  %ref.tmp26 = alloca %"class.google::LogMessageFatal", align 8
  %call = call i32 @sigemptyset(ptr noundef nonnull %ss) #16
  %call2 = call i32 @sigaddset(ptr noundef nonnull %ss, i32 noundef 1) #16
  %call3 = call i32 @sigaddset(ptr noundef nonnull %ss, i32 noundef 2) #16
  %call4 = call i32 @sigaddset(ptr noundef nonnull %ss, i32 noundef 3) #16
  %call5 = call i32 @sigaddset(ptr noundef nonnull %ss, i32 noundef 10) #16
  %call6 = call i32 @sigaddset(ptr noundef nonnull %ss, i32 noundef 12) #16
  %call7 = call i32 @sigaddset(ptr noundef nonnull %ss, i32 noundef 13) #16
  %call8 = call i32 @sigaddset(ptr noundef nonnull %ss, i32 noundef 14) #16
  %call9 = call i32 @sigaddset(ptr noundef nonnull %ss, i32 noundef 15) #16
  %call10 = call i32 @sigaddset(ptr noundef nonnull %ss, i32 noundef 17) #16
  %call11 = call i32 @sigaddset(ptr noundef nonnull %ss, i32 noundef 29) #16
  %call12 = call i32 @pthread_sigmask(i32 noundef 0, ptr noundef nonnull %ss, ptr noundef null) #16
  %cmp.not.not = icmp eq i32 %call12, 0
  br i1 %cmp.not.not, label %cleanup.done, label %cond.false

cond.false:                                       ; preds = %entry
  store i64 ptrtoint (ptr @_ZN6google10LogMessage9SendToLogEv to i64), ptr %indirect-arg-temp, align 8
  %.fca.1.gep = getelementptr inbounds i8, ptr %indirect-arg-temp, i64 8
  store i64 0, ptr %.fca.1.gep, align 8
  call void @_ZN6google15ErrnoLogMessageC1EPKciilMNS_10LogMessageEFvvE(ptr noundef nonnull align 8 dereferenceable(96) %ref.tmp13, ptr noundef nonnull @.str, i32 noundef 169, i32 noundef 3, i64 noundef 0, ptr noundef nonnull byval({ i64, i64 }) align 8 %indirect-arg-temp)
  %call14 = invoke noundef nonnull align 8 dereferenceable(8) ptr @_ZN6google10LogMessage6streamEv(ptr noundef nonnull align 8 dereferenceable(96) %ref.tmp13)
          to label %invoke.cont unwind label %lpad

invoke.cont:                                      ; preds = %cond.false
  %call16 = invoke noundef nonnull align 8 dereferenceable(8) ptr @_ZStlsISt11char_traitsIcEERSt13basic_ostreamIcT_ES5_PKc(ptr noundef nonnull align 8 dereferenceable(8) %call14, ptr noundef nonnull @.str.4)
          to label %cleanup.action unwind label %lpad

cleanup.action:                                   ; preds = %invoke.cont
  call void @_ZN6google15ErrnoLogMessageD1Ev(ptr noundef nonnull align 8 dereferenceable(96) %ref.tmp13) #16
  br label %cleanup.done

cleanup.done:                                     ; preds = %entry, %cleanup.action
  %0 = call align 8 ptr @llvm.threadlocal.address.p0(ptr align 8 @_ZN8proxygen12WorkerThread14currentWorker_E)
  %1 = load ptr, ptr %0, align 8
  %cmp21.not.not = icmp eq ptr %1, null
  br i1 %cmp21.not.not, label %cleanup.done37, label %cond.false24

cond.false24:                                     ; preds = %cleanup.done
  call void @_ZN6google15LogMessageFatalC1EPKci(ptr noundef nonnull align 8 dereferenceable(96) %ref.tmp26, ptr noundef nonnull @.str, i32 noundef 173)
  %call30 = invoke noundef nonnull align 8 dereferenceable(8) ptr @_ZN6google10LogMessage6streamEv(ptr noundef nonnull align 8 dereferenceable(96) %ref.tmp26)
          to label %invoke.cont29 unwind label %lpad28

invoke.cont29:                                    ; preds = %cond.false24
  %call32 = invoke noundef nonnull align 8 dereferenceable(8) ptr @_ZStlsISt11char_traitsIcEERSt13basic_ostreamIcT_ES5_PKc(ptr noundef nonnull align 8 dereferenceable(8) %call30, ptr noundef nonnull @.str.5)
          to label %cleanup.action36 unwind label %lpad28

cleanup.action36:                                 ; preds = %invoke.cont29
  call void @_ZN6google15LogMessageFatalD1Ev(ptr noundef nonnull align 8 dereferenceable(96) %ref.tmp26) #15
  unreachable

lpad:                                             ; preds = %invoke.cont, %cond.false
  %2 = landingpad { ptr, i32 }
          cleanup
  call void @_ZN6google15ErrnoLogMessageD1Ev(ptr noundef nonnull align 8 dereferenceable(96) %ref.tmp13) #16
  resume { ptr, i32 } %2

lpad28:                                           ; preds = %invoke.cont29, %cond.false24
  %3 = landingpad { ptr, i32 }
          cleanup
  call void @_ZN6google15LogMessageFatalD1Ev(ptr noundef nonnull align 8 dereferenceable(96) %ref.tmp26) #15
  unreachable

cleanup.done37:                                   ; preds = %cleanup.done
  store ptr %this, ptr %0, align 8
  %eventBaseManager_ = getelementptr inbounds i8, ptr %this, i64 64
  %4 = load ptr, ptr %eventBaseManager_, align 8
  %tobool.not = icmp eq ptr %4, null
  br i1 %tobool.not, label %if.end, label %if.then

if.then:                                          ; preds = %cleanup.done37
  %eventBase_ = getelementptr inbounds i8, ptr %this, i64 72
  %5 = load ptr, ptr %eventBase_, align 8
  call void @_ZN5folly16EventBaseManager12setEventBaseEPNS_9EventBaseEb(ptr noundef nonnull align 8 dereferenceable(112) %4, ptr noundef %5, i1 noundef zeroext false)
  br label %if.end

if.end:                                           ; preds = %if.then, %cleanup.done37
  ret void
}